; Function Attrs: mustprogress uwtable
define zeroext range(i8 0, 2) i8 @lean_string_validate_utf8(ptr noundef %0) local_unnamed_addr #0 {
  %2 = alloca i64, align 8
  %3 = alloca i64, align 8
  call void @llvm.lifetime.start.p0(i64 8, ptr nonnull %2) #40
  store i64 0, ptr %2, align 8, !tbaa !30
  call void @llvm.lifetime.start.p0(i64 8, ptr nonnull %3) #40
  store i64 0, ptr %3, align 8, !tbaa !30
  %4 = getelementptr inbounds nuw i8, ptr %0, i64 24
  %5 = getelementptr i8, ptr %0, i64 8
  %.val = load i64, ptr %5, align 8, !tbaa !30
  %6 = call noundef zeroext i1 @_ZN4lean13validate_utf8EPKhmRmS2_(ptr noundef nonnull %4, i64 noundef %.val, ptr noundef nonnull align 8 dereferenceable(8) %2, ptr noundef nonnull align 8 dereferenceable(8) %3)
  %7 = zext i1 %6 to i8
  call void @llvm.lifetime.end.p0(i64 8, ptr nonnull %3) #40
  call void @llvm.lifetime.end.p0(i64 8, ptr nonnull %2) #40
  ret i8 %7
}